; Function Attrs: nounwind uwtable
define dso_local void @freeClientMultiState(ptr noundef readonly captures(none) %0) local_unnamed_addr #1 {
  %2 = getelementptr inbounds nuw i8, ptr %0, i64 440
  %3 = getelementptr inbounds nuw i8, ptr %0, i64 448
  %4 = load i32, ptr %3, align 8, !tbaa !29
  %5 = icmp sgt i32 %4, 0
  br i1 %5, label %.lr.ph15, label %._crit_edge16

.lr.ph15:                                         ; preds = %1, %._crit_edge
  %indvars.iv18 = phi i64 [ %indvars.iv.next19, %._crit_edge ], [ 0, %1 ]
  %6 = load ptr, ptr %2, align 8, !tbaa !30
  %7 = getelementptr inbounds nuw %struct.multiCmd, ptr %6, i64 %indvars.iv18
  %8 = getelementptr inbounds nuw i8, ptr %7, i64 12
  %9 = load i32, ptr %8, align 4, !tbaa !31
  %10 = icmp sgt i32 %9, 0
  br i1 %10, label %.lr.ph, label %._crit_edge

.lr.ph:                                           ; preds = %.lr.ph15, %.lr.ph
  %indvars.iv = phi i64 [ %indvars.iv.next, %.lr.ph ], [ 0, %.lr.ph15 ]
  %11 = load ptr, ptr %7, align 8, !tbaa !33
  %12 = getelementptr inbounds nuw ptr, ptr %11, i64 %indvars.iv
  %13 = load ptr, ptr %12, align 8, !tbaa !34
  tail call void @decrRefCount(ptr noundef %13) #10
  %indvars.iv.next = add nuw nsw i64 %indvars.iv, 1
  %14 = load i32, ptr %8, align 4, !tbaa !31
  %15 = sext i32 %14 to i64
  %16 = icmp slt i64 %indvars.iv.next, %15
  br i1 %16, label %.lr.ph, label %._crit_edge, !llvm.loop !35

._crit_edge:                                      ; preds = %.lr.ph, %.lr.ph15
  %17 = load ptr, ptr %7, align 8, !tbaa !33
  tail call void @zfree(ptr noundef %17) #10
  %indvars.iv.next19 = add nuw nsw i64 %indvars.iv18, 1
  %18 = load i32, ptr %3, align 8, !tbaa !29
  %19 = sext i32 %18 to i64
  %20 = icmp slt i64 %indvars.iv.next19, %19
  br i1 %20, label %.lr.ph15, label %._crit_edge16, !llvm.loop !37

._crit_edge16:                                    ; preds = %._crit_edge, %1
  %21 = load ptr, ptr %2, align 8, !tbaa !30
  tail call void @zfree(ptr noundef %21) #10
  ret void
}